; Function Attrs: mustprogress uwtable
define void @_ZNK6casadi4Expm16get_jac_sparsityExxb(ptr dead_on_unwind noalias writable sret(%"class.casadi::Sparsity") align 8 %0, ptr noundef nonnull align 8 dereferenceable(1329) %1, i64 noundef %2, i64 noundef %3, i1 noundef zeroext %4) unnamed_addr #3 align 2 {
  %6 = getelementptr inbounds nuw i8, ptr %1, i64 1328
  %7 = load i8, ptr %6, align 8, !tbaa !82, !range !143, !noundef !144
  %8 = trunc nuw i8 %7 to i1
  %9 = icmp eq i64 %3, 0
  %or.cond = and i1 %9, %8
  br i1 %or.cond, label %10, label %28

10:                                               ; preds = %5
  %11 = getelementptr inbounds nuw i8, ptr %1, i64 296
  %12 = getelementptr inbounds nuw i8, ptr %1, i64 304
  %13 = load ptr, ptr %12, align 8, !tbaa !194
  %14 = load ptr, ptr %11, align 8, !tbaa !195
  %15 = ptrtoint ptr %13 to i64
  %16 = ptrtoint ptr %14 to i64
  %17 = sub i64 %15, %16
  %18 = ashr exact i64 %17, 3
  %.not.i.i.i.i = icmp ult i64 %2, %18
  br i1 %.not.i.i.i.i, label %_ZNK6casadi16FunctionInternal7nnz_outEx.exit, label %19

19:                                               ; preds = %10
  tail call void (ptr, ...) @_ZSt24__throw_out_of_range_fmtPKcz(ptr noundef nonnull @.str.25, i64 noundef %2, i64 noundef %18) #29
  unreachable

_ZNK6casadi16FunctionInternal7nnz_outEx.exit:     ; preds = %10
  %20 = getelementptr inbounds nuw %"class.casadi::Sparsity", ptr %14, i64 %2
  %21 = tail call noundef i64 @_ZNK6casadi8Sparsity3nnzEv(ptr noundef nonnull align 8 dereferenceable(8) %20)
  %22 = getelementptr inbounds nuw i8, ptr %1, i64 272
  %23 = getelementptr inbounds nuw i8, ptr %1, i64 280
  %24 = load ptr, ptr %23, align 8, !tbaa !194
  %25 = load ptr, ptr %22, align 8, !tbaa !195
  %.not.i.i.i.i7.not = icmp eq ptr %24, %25
  br i1 %.not.i.i.i.i7.not, label %26, label %_ZNK6casadi16FunctionInternal6nnz_inEx.exit

26:                                               ; preds = %_ZNK6casadi16FunctionInternal7nnz_outEx.exit
  tail call void (ptr, ...) @_ZSt24__throw_out_of_range_fmtPKcz(ptr noundef nonnull @.str.25, i64 noundef 0, i64 noundef 0) #29
  unreachable

_ZNK6casadi16FunctionInternal6nnz_inEx.exit:      ; preds = %_ZNK6casadi16FunctionInternal7nnz_outEx.exit
  %27 = tail call noundef i64 @_ZNK6casadi8Sparsity3nnzEv(ptr noundef nonnull align 8 dereferenceable(8) %25)
  tail call void @_ZN6casadi8SparsityC1Exx(ptr noundef nonnull align 8 dereferenceable(8) %0, i64 noundef %21, i64 noundef %27)
  br label %29

28:                                               ; preds = %5
  tail call void @_ZNK6casadi16FunctionInternal16get_jac_sparsityExxb(ptr dead_on_unwind writable sret(%"class.casadi::Sparsity") align 8 %0, ptr noundef nonnull align 8 dereferenceable(1312) %1, i64 noundef %2, i64 noundef %3, i1 noundef zeroext %4)
  br label %29

29:                                               ; preds = %28, %_ZNK6casadi16FunctionInternal6nnz_inEx.exit
  ret void
}